target datalayout = "e-m:e-p270:32:32-p271:32:32-p272:64:64-i64:64-i128:128-f80:128-n8:16:32:64-S128"
target triple = "x86_64-pc-linux-gnu"

@.str.1 = private unnamed_addr constant [6 x i8] c"DHKEM\00", align 1
@libctx = internal global ptr null, align 8
@.str.3 = private unnamed_addr constant [38 x i8] c"../openssl/test/evp_pkey_dhkem_test.c\00", align 1
@.str.5 = private unnamed_addr constant [3 x i8] c"EC\00", align 1
@.str.39 = private unnamed_addr constant [1 x i8] zeroinitializer, align 1
@.str.50 = private unnamed_addr constant [2 x i8] c"1\00", align 1
@.str.65 = private unnamed_addr constant [37 x i8] c"EVP_PKEY_encapsulate_init(ctx, NULL)\00", align 1
@.str.72 = private unnamed_addr constant [37 x i8] c"EVP_PKEY_decapsulate_init(ctx, NULL)\00", align 1
@dhkem_supported_curves = internal global [5 x ptr] [ptr @.str.6, ptr @.str.132, ptr @.str.42, ptr @.str.8, ptr @.str.133], align 16
@.str.118 = private unnamed_addr constant [35 x i8] c"testing encap/decap of curve %s%s\0A\00", align 1
@.str.119 = private unnamed_addr constant [11 x i8] c" with auth\00", align 1
@.str.120 = private unnamed_addr constant [47 x i8] c"recip = EVP_PKEY_Q_keygen(libctx, NULL, curve)\00", align 1
@.str.121 = private unnamed_addr constant [53 x i8] c"sender_auth = EVP_PKEY_Q_keygen(libctx, NULL, curve)\00", align 1
@.str.122 = private unnamed_addr constant [53 x i8] c"recip = EVP_PKEY_Q_keygen(libctx, NULL, \22EC\22, curve)\00", align 1
@.str.123 = private unnamed_addr constant [59 x i8] c"sender_auth = EVP_PKEY_Q_keygen(libctx, NULL, \22EC\22, curve)\00", align 1
@.str.124 = private unnamed_addr constant [54 x i8] c"ctx = EVP_PKEY_CTX_new_from_pkey(libctx, recip, NULL)\00", align 1
@.str.125 = private unnamed_addr constant [55 x i8] c"EVP_PKEY_auth_encapsulate_init(ctx, sender_auth, NULL)\00", align 1
@.str.126 = private unnamed_addr constant [33 x i8] c"EVP_PKEY_CTX_set_kem_op(ctx, op)\00", align 1
@.str.127 = private unnamed_addr constant [88 x i8] c"EVP_PKEY_encapsulate(ctx, sender_pub, &sender_publen, sender_secret, &sender_secretlen)\00", align 1
@.str.128 = private unnamed_addr constant [55 x i8] c"EVP_PKEY_auth_decapsulate_init(ctx, sender_auth, NULL)\00", align 1
@.str.129 = private unnamed_addr constant [85 x i8] c"EVP_PKEY_decapsulate(ctx, recip_secret, &recip_secretlen, sender_pub, sender_publen)\00", align 1
@.str.130 = private unnamed_addr constant [13 x i8] c"recip_secret\00", align 1
@.str.131 = private unnamed_addr constant [14 x i8] c"sender_secret\00", align 1

; Function Attrs: nounwind uwtable
define internal i32 @test_ec_noikme(i32 noundef %0) #0 {
  %2 = alloca i32, align 4
  %3 = alloca i32, align 4
  %4 = alloca i32, align 4
  %5 = alloca ptr, align 8
  %6 = alloca ptr, align 8
  %7 = alloca ptr, align 8
  %8 = alloca [256 x i8], align 16
  %9 = alloca [256 x i8], align 16
  %10 = alloca [256 x i8], align 16
  %11 = alloca i64, align 8
  %12 = alloca i64, align 8
  %13 = alloca i64, align 8
  %14 = alloca ptr, align 8
  %15 = alloca i32, align 4
  %16 = alloca ptr, align 8
  store i32 %0, ptr %2, align 4, !tbaa !10
  call void @llvm.lifetime.start.p0(i64 4, ptr %3) #6
  store i32 0, ptr %3, align 4, !tbaa !10
  call void @llvm.lifetime.start.p0(i64 4, ptr %4) #6
  store i32 0, ptr %4, align 4, !tbaa !10
  call void @llvm.lifetime.start.p0(i64 8, ptr %5) #6
  store ptr null, ptr %5, align 8, !tbaa !19
  call void @llvm.lifetime.start.p0(i64 8, ptr %6) #6
  store ptr null, ptr %6, align 8, !tbaa !17
  call void @llvm.lifetime.start.p0(i64 8, ptr %7) #6
  store ptr null, ptr %7, align 8, !tbaa !17
  call void @llvm.lifetime.start.p0(i64 256, ptr %8) #6
  call void @llvm.lifetime.start.p0(i64 256, ptr %9) #6
  call void @llvm.lifetime.start.p0(i64 256, ptr %10) #6
  call void @llvm.lifetime.start.p0(i64 8, ptr %11) #6
  store i64 256, ptr %11, align 8, !tbaa !13
  call void @llvm.lifetime.start.p0(i64 8, ptr %12) #6
  store i64 256, ptr %12, align 8, !tbaa !13
  call void @llvm.lifetime.start.p0(i64 8, ptr %13) #6
  store i64 256, ptr %13, align 8, !tbaa !13
  call void @llvm.lifetime.start.p0(i64 8, ptr %14) #6
  call void @llvm.lifetime.start.p0(i64 4, ptr %15) #6
  store i32 5, ptr %15, align 4, !tbaa !10
  call void @llvm.lifetime.start.p0(i64 8, ptr %16) #6
  store ptr @.str.1, ptr %16, align 8, !tbaa !4
  %17 = load i32, ptr %2, align 4, !tbaa !10
  %18 = load i32, ptr %15, align 4, !tbaa !10
  %19 = icmp sge i32 %17, %18
  br i1 %19, label %20, label %24

20:                                               ; preds = %1
  store i32 1, ptr %4, align 4, !tbaa !10
  %21 = load i32, ptr %15, align 4, !tbaa !10
  %22 = load i32, ptr %2, align 4, !tbaa !10
  %23 = sub nsw i32 %22, %21
  store i32 %23, ptr %2, align 4, !tbaa !10
  br label %24

24:                                               ; preds = %20, %1
  %25 = load i32, ptr %2, align 4, !tbaa !10
  %26 = sext i32 %25 to i64
  %27 = getelementptr inbounds [5 x ptr], ptr @dhkem_supported_curves, i64 0, i64 %26
  %28 = load ptr, ptr %27, align 8, !tbaa !4
  store ptr %28, ptr %14, align 8, !tbaa !4
  %29 = load ptr, ptr %14, align 8, !tbaa !4
  %30 = load i32, ptr %4, align 4, !tbaa !10
  %31 = icmp ne i32 %30, 0
  %32 = select i1 %31, ptr @.str.119, ptr @.str.39
  call void (ptr, ...) @test_note(ptr noundef @.str.118, ptr noundef %29, ptr noundef %32)
  %33 = load ptr, ptr %14, align 8, !tbaa !4
  %34 = getelementptr inbounds i8, ptr %33, i64 0
  %35 = load i8, ptr %34, align 1, !tbaa !47
  %36 = sext i8 %35 to i32
  %37 = icmp eq i32 %36, 88
  br i1 %37, label %38, label %55

38:                                               ; preds = %24
  %39 = load ptr, ptr @libctx, align 8, !tbaa !15
  %40 = load ptr, ptr %14, align 8, !tbaa !4
  %41 = call ptr (ptr, ptr, ptr, ...) @EVP_PKEY_Q_keygen(ptr noundef %39, ptr noundef null, ptr noundef %40)
  store ptr %41, ptr %6, align 8, !tbaa !17
  %42 = call i32 @test_ptr(ptr noundef @.str.3, i32 noundef 532, ptr noundef @.str.120, ptr noundef %41)
  %43 = icmp ne i32 %42, 0
  br i1 %43, label %44, label %53

44:                                               ; preds = %38
  %45 = load i32, ptr %4, align 4, !tbaa !10
  %46 = icmp ne i32 %45, 0
  br i1 %46, label %47, label %54

47:                                               ; preds = %44
  %48 = load ptr, ptr @libctx, align 8, !tbaa !15
  %49 = load ptr, ptr %14, align 8, !tbaa !4
  %50 = call ptr (ptr, ptr, ptr, ...) @EVP_PKEY_Q_keygen(ptr noundef %48, ptr noundef null, ptr noundef %49)
  store ptr %50, ptr %7, align 8, !tbaa !17
  %51 = call i32 @test_ptr(ptr noundef @.str.3, i32 noundef 535, ptr noundef @.str.121, ptr noundef %50)
  %52 = icmp ne i32 %51, 0
  br i1 %52, label %54, label %53

53:                                               ; preds = %47, %38
  br label %149

54:                                               ; preds = %47, %44
  br label %72

55:                                               ; preds = %24
  %56 = load ptr, ptr @libctx, align 8, !tbaa !15
  %57 = load ptr, ptr %14, align 8, !tbaa !4
  %58 = call ptr (ptr, ptr, ptr, ...) @EVP_PKEY_Q_keygen(ptr noundef %56, ptr noundef null, ptr noundef @.str.5, ptr noundef %57)
  store ptr %58, ptr %6, align 8, !tbaa !17
  %59 = call i32 @test_ptr(ptr noundef @.str.3, i32 noundef 538, ptr noundef @.str.122, ptr noundef %58)
  %60 = icmp ne i32 %59, 0
  br i1 %60, label %61, label %70

61:                                               ; preds = %55
  %62 = load i32, ptr %4, align 4, !tbaa !10
  %63 = icmp ne i32 %62, 0
  br i1 %63, label %64, label %71

64:                                               ; preds = %61
  %65 = load ptr, ptr @libctx, align 8, !tbaa !15
  %66 = load ptr, ptr %14, align 8, !tbaa !4
  %67 = call ptr (ptr, ptr, ptr, ...) @EVP_PKEY_Q_keygen(ptr noundef %65, ptr noundef null, ptr noundef @.str.5, ptr noundef %66)
  store ptr %67, ptr %7, align 8, !tbaa !17
  %68 = call i32 @test_ptr(ptr noundef @.str.3, i32 noundef 541, ptr noundef @.str.123, ptr noundef %67)
  %69 = icmp ne i32 %68, 0
  br i1 %69, label %71, label %70

70:                                               ; preds = %64, %55
  br label %149

71:                                               ; preds = %64, %61
  br label %72

72:                                               ; preds = %71, %54
  %73 = load ptr, ptr @libctx, align 8, !tbaa !15
  %74 = load ptr, ptr %6, align 8, !tbaa !17
  %75 = call ptr @EVP_PKEY_CTX_new_from_pkey(ptr noundef %73, ptr noundef %74, ptr noundef null)
  store ptr %75, ptr %5, align 8, !tbaa !19
  %76 = call i32 @test_ptr(ptr noundef @.str.3, i32 noundef 545, ptr noundef @.str.124, ptr noundef %75)
  %77 = icmp ne i32 %76, 0
  br i1 %77, label %78, label %146

78:                                               ; preds = %72
  %79 = load ptr, ptr %7, align 8, !tbaa !17
  %80 = icmp eq ptr %79, null
  br i1 %80, label %87, label %81

81:                                               ; preds = %78
  %82 = load ptr, ptr %5, align 8, !tbaa !19
  %83 = load ptr, ptr %7, align 8, !tbaa !17
  %84 = call i32 @EVP_PKEY_auth_encapsulate_init(ptr noundef %82, ptr noundef %83, ptr noundef null)
  %85 = call i32 @test_int_eq(ptr noundef @.str.3, i32 noundef 548, ptr noundef @.str.125, ptr noundef @.str.50, i32 noundef %84, i32 noundef 1)
  %86 = icmp ne i32 %85, 0
  br i1 %86, label %87, label %146

87:                                               ; preds = %81, %78
  %88 = load ptr, ptr %7, align 8, !tbaa !17
  %89 = icmp ne ptr %88, null
  br i1 %89, label %95, label %90

90:                                               ; preds = %87
  %91 = load ptr, ptr %5, align 8, !tbaa !19
  %92 = call i32 @EVP_PKEY_encapsulate_init(ptr noundef %91, ptr noundef null)
  %93 = call i32 @test_int_eq(ptr noundef @.str.3, i32 noundef 550, ptr noundef @.str.65, ptr noundef @.str.50, i32 noundef %92, i32 noundef 1)
  %94 = icmp ne i32 %93, 0
  br i1 %94, label %95, label %146

95:                                               ; preds = %90, %87
  %96 = load ptr, ptr %5, align 8, !tbaa !19
  %97 = load ptr, ptr %16, align 8, !tbaa !4
  %98 = call i32 @EVP_PKEY_CTX_set_kem_op(ptr noundef %96, ptr noundef %97)
  %99 = call i32 @test_int_eq(ptr noundef @.str.3, i32 noundef 551, ptr noundef @.str.126, ptr noundef @.str.50, i32 noundef %98, i32 noundef 1)
  %100 = icmp ne i32 %99, 0
  br i1 %100, label %101, label %146

101:                                              ; preds = %95
  %102 = load ptr, ptr %5, align 8, !tbaa !19
  %103 = getelementptr inbounds [256 x i8], ptr %10, i64 0, i64 0
  %104 = getelementptr inbounds [256 x i8], ptr %8, i64 0, i64 0
  %105 = call i32 @EVP_PKEY_encapsulate(ptr noundef %102, ptr noundef %103, ptr noundef %13, ptr noundef %104, ptr noundef %11)
  %106 = call i32 @test_int_eq(ptr noundef @.str.3, i32 noundef 553, ptr noundef @.str.127, ptr noundef @.str.50, i32 noundef %105, i32 noundef 1)
  %107 = icmp ne i32 %106, 0
  br i1 %107, label %108, label %146

108:                                              ; preds = %101
  %109 = load ptr, ptr %7, align 8, !tbaa !17
  %110 = icmp eq ptr %109, null
  br i1 %110, label %117, label %111

111:                                              ; preds = %108
  %112 = load ptr, ptr %5, align 8, !tbaa !19
  %113 = load ptr, ptr %7, align 8, !tbaa !17
  %114 = call i32 @EVP_PKEY_auth_decapsulate_init(ptr noundef %112, ptr noundef %113, ptr noundef null)
  %115 = call i32 @test_int_eq(ptr noundef @.str.3, i32 noundef 556, ptr noundef @.str.128, ptr noundef @.str.50, i32 noundef %114, i32 noundef 1)
  %116 = icmp ne i32 %115, 0
  br i1 %116, label %117, label %146

117:                                              ; preds = %111, %108
  %118 = load ptr, ptr %7, align 8, !tbaa !17
  %119 = icmp ne ptr %118, null
  br i1 %119, label %125, label %120

120:                                              ; preds = %117
  %121 = load ptr, ptr %5, align 8, !tbaa !19
  %122 = call i32 @EVP_PKEY_decapsulate_init(ptr noundef %121, ptr noundef null)
  %123 = call i32 @test_int_eq(ptr noundef @.str.3, i32 noundef 558, ptr noundef @.str.72, ptr noundef @.str.50, i32 noundef %122, i32 noundef 1)
  %124 = icmp ne i32 %123, 0
  br i1 %124, label %125, label %146

125:                                              ; preds = %120, %117
  %126 = load ptr, ptr %5, align 8, !tbaa !19
  %127 = load ptr, ptr %16, align 8, !tbaa !4
  %128 = call i32 @EVP_PKEY_CTX_set_kem_op(ptr noundef %126, ptr noundef %127)
  %129 = call i32 @test_int_eq(ptr noundef @.str.3, i32 noundef 559, ptr noundef @.str.126, ptr noundef @.str.50, i32 noundef %128, i32 noundef 1)
  %130 = icmp ne i32 %129, 0
  br i1 %130, label %131, label %146

131:                                              ; preds = %125
  %132 = load ptr, ptr %5, align 8, !tbaa !19
  %133 = getelementptr inbounds [256 x i8], ptr %9, i64 0, i64 0
  %134 = getelementptr inbounds [256 x i8], ptr %10, i64 0, i64 0
  %135 = load i64, ptr %13, align 8, !tbaa !13
  %136 = call i32 @EVP_PKEY_decapsulate(ptr noundef %132, ptr noundef %133, ptr noundef %12, ptr noundef %134, i64 noundef %135)
  %137 = call i32 @test_int_eq(ptr noundef @.str.3, i32 noundef 561, ptr noundef @.str.129, ptr noundef @.str.50, i32 noundef %136, i32 noundef 1)
  %138 = icmp ne i32 %137, 0
  br i1 %138, label %139, label %146

139:                                              ; preds = %131
  %140 = getelementptr inbounds [256 x i8], ptr %9, i64 0, i64 0
  %141 = load i64, ptr %12, align 8, !tbaa !13
  %142 = getelementptr inbounds [256 x i8], ptr %8, i64 0, i64 0
  %143 = load i64, ptr %11, align 8, !tbaa !13
  %144 = call i32 @test_mem_eq(ptr noundef @.str.3, i32 noundef 563, ptr noundef @.str.130, ptr noundef @.str.131, ptr noundef %140, i64 noundef %141, ptr noundef %142, i64 noundef %143)
  %145 = icmp ne i32 %144, 0
  br label %146

146:                                              ; preds = %139, %131, %125, %120, %111, %101, %95, %90, %81, %72
  %147 = phi i1 [ false, %131 ], [ false, %125 ], [ false, %120 ], [ false, %111 ], [ false, %101 ], [ false, %95 ], [ false, %90 ], [ false, %81 ], [ false, %72 ], [ %145, %139 ]
  %148 = zext i1 %147 to i32
  store i32 %148, ptr %3, align 4, !tbaa !10
  br label %149

149:                                              ; preds = %146, %70, %53
  %150 = load ptr, ptr %5, align 8, !tbaa !19
  call void @EVP_PKEY_CTX_free(ptr noundef %150)
  %151 = load ptr, ptr %7, align 8, !tbaa !17
  call void @EVP_PKEY_free(ptr noundef %151)
  %152 = load ptr, ptr %6, align 8, !tbaa !17
  call void @EVP_PKEY_free(ptr noundef %152)
  %153 = load i32, ptr %3, align 4, !tbaa !10
  call void @llvm.lifetime.end.p0(i64 8, ptr %16) #6
  call void @llvm.lifetime.end.p0(i64 4, ptr %15) #6
  call void @llvm.lifetime.end.p0(i64 8, ptr %14) #6
  call void @llvm.lifetime.end.p0(i64 8, ptr %13) #6
  call void @llvm.lifetime.end.p0(i64 8, ptr %12) #6
  call void @llvm.lifetime.end.p0(i64 8, ptr %11) #6
  call void @llvm.lifetime.end.p0(i64 256, ptr %10) #6
  call void @llvm.lifetime.end.p0(i64 256, ptr %9) #6
  call void @llvm.lifetime.end.p0(i64 256, ptr %8) #6
  call void @llvm.lifetime.end.p0(i64 8, ptr %7) #6
  call void @llvm.lifetime.end.p0(i64 8, ptr %6) #6
  call void @llvm.lifetime.end.p0(i64 8, ptr %5) #6
  call void @llvm.lifetime.end.p0(i64 4, ptr %4) #6
  call void @llvm.lifetime.end.p0(i64 4, ptr %3) #6
  ret i32 %153
}