; Function Attrs: nounwind uwtable
define internal range(i32 0, 2) i32 @test_ec_noikme(i32 noundef %0) #0 {
  %2 = alloca [256 x i8], align 16
  %3 = alloca [256 x i8], align 16
  %4 = alloca [256 x i8], align 16
  %5 = alloca i64, align 8
  %6 = alloca i64, align 8
  %7 = alloca i64, align 8
  call void @llvm.lifetime.start.p0(i64 256, ptr nonnull %2) #5
  call void @llvm.lifetime.start.p0(i64 256, ptr nonnull %3) #5
  call void @llvm.lifetime.start.p0(i64 256, ptr nonnull %4) #5
  call void @llvm.lifetime.start.p0(i64 8, ptr nonnull %5) #5
  store i64 256, ptr %5, align 8, !tbaa !13
  call void @llvm.lifetime.start.p0(i64 8, ptr nonnull %6) #5
  store i64 256, ptr %6, align 8, !tbaa !13
  call void @llvm.lifetime.start.p0(i64 8, ptr nonnull %7) #5
  store i64 256, ptr %7, align 8, !tbaa !13
  %8 = icmp slt i32 %0, 5
  %9 = add nsw i32 %0, -5
  %spec.select = select i1 %8, ptr @.str.39, ptr @.str.119
  %spec.select55 = select i1 %8, i32 %0, i32 %9
  %10 = sext i32 %spec.select55 to i64
  %11 = getelementptr inbounds [5 x ptr], ptr @dhkem_supported_curves, i64 0, i64 %10
  %12 = load ptr, ptr %11, align 8, !tbaa !5
  tail call void (ptr, ...) @test_note(ptr noundef nonnull @.str.118, ptr noundef %12, ptr noundef nonnull %spec.select) #5
  %13 = load i8, ptr %12, align 1, !tbaa !49
  %14 = icmp eq i8 %13, 88
  %15 = load ptr, ptr @libctx, align 8, !tbaa !15
  br i1 %14, label %16, label %24

16:                                               ; preds = %1
  %17 = tail call ptr (ptr, ptr, ptr, ...) @EVP_PKEY_Q_keygen(ptr noundef %15, ptr noundef null, ptr noundef nonnull %12) #5
  %18 = tail call i32 @test_ptr(ptr noundef nonnull @.str.3, i32 noundef 532, ptr noundef nonnull @.str.120, ptr noundef %17) #5
  %.not43 = icmp eq i32 %18, 0
  br i1 %.not43, label %70, label %19

19:                                               ; preds = %16
  br i1 %8, label %32, label %20

20:                                               ; preds = %19
  %21 = load ptr, ptr @libctx, align 8, !tbaa !15
  %22 = tail call ptr (ptr, ptr, ptr, ...) @EVP_PKEY_Q_keygen(ptr noundef %21, ptr noundef null, ptr noundef nonnull %12) #5
  %23 = tail call i32 @test_ptr(ptr noundef nonnull @.str.3, i32 noundef 535, ptr noundef nonnull @.str.121, ptr noundef %22) #5
  %.not44 = icmp eq i32 %23, 0
  br i1 %.not44, label %70, label %32

24:                                               ; preds = %1
  %25 = tail call ptr (ptr, ptr, ptr, ...) @EVP_PKEY_Q_keygen(ptr noundef %15, ptr noundef null, ptr noundef nonnull @.str.5, ptr noundef nonnull %12) #5
  %26 = tail call i32 @test_ptr(ptr noundef nonnull @.str.3, i32 noundef 538, ptr noundef nonnull @.str.122, ptr noundef %25) #5
  %.not = icmp eq i32 %26, 0
  br i1 %.not, label %70, label %27

27:                                               ; preds = %24
  br i1 %8, label %32, label %28

28:                                               ; preds = %27
  %29 = load ptr, ptr @libctx, align 8, !tbaa !15
  %30 = tail call ptr (ptr, ptr, ptr, ...) @EVP_PKEY_Q_keygen(ptr noundef %29, ptr noundef null, ptr noundef nonnull @.str.5, ptr noundef nonnull %12) #5
  %31 = tail call i32 @test_ptr(ptr noundef nonnull @.str.3, i32 noundef 541, ptr noundef nonnull @.str.123, ptr noundef %30) #5
  %.not42 = icmp eq i32 %31, 0
  br i1 %.not42, label %70, label %32

32:                                               ; preds = %27, %28, %19, %20
  %.138 = phi ptr [ %17, %20 ], [ %17, %19 ], [ %25, %28 ], [ %25, %27 ]
  %.1 = phi ptr [ %22, %20 ], [ null, %19 ], [ %30, %28 ], [ null, %27 ]
  %33 = load ptr, ptr @libctx, align 8, !tbaa !15
  %34 = tail call ptr @EVP_PKEY_CTX_new_from_pkey(ptr noundef %33, ptr noundef %.138, ptr noundef null) #5
  %35 = tail call i32 @test_ptr(ptr noundef nonnull @.str.3, i32 noundef 545, ptr noundef nonnull @.str.124, ptr noundef %34) #5
  %.not45 = icmp eq i32 %35, 0
  br i1 %.not45, label %70, label %36

36:                                               ; preds = %32
  %37 = icmp eq ptr %.1, null
  br i1 %37, label %41, label %38

38:                                               ; preds = %36
  %39 = tail call i32 @EVP_PKEY_auth_encapsulate_init(ptr noundef %34, ptr noundef nonnull %.1, ptr noundef null) #5
  %40 = tail call i32 @test_int_eq(ptr noundef nonnull @.str.3, i32 noundef 548, ptr noundef nonnull @.str.125, ptr noundef nonnull @.str.50, i32 noundef %39, i32 noundef 1) #5
  %.not46 = icmp eq i32 %40, 0
  br i1 %.not46, label %70, label %44

41:                                               ; preds = %36
  %42 = tail call i32 @EVP_PKEY_encapsulate_init(ptr noundef %34, ptr noundef null) #5
  %43 = tail call i32 @test_int_eq(ptr noundef nonnull @.str.3, i32 noundef 550, ptr noundef nonnull @.str.65, ptr noundef nonnull @.str.50, i32 noundef %42, i32 noundef 1) #5
  %.not48 = icmp eq i32 %43, 0
  br i1 %.not48, label %70, label %44

44:                                               ; preds = %38, %41
  %45 = tail call i32 @EVP_PKEY_CTX_set_kem_op(ptr noundef %34, ptr noundef nonnull @.str.1) #5
  %46 = tail call i32 @test_int_eq(ptr noundef nonnull @.str.3, i32 noundef 551, ptr noundef nonnull @.str.126, ptr noundef nonnull @.str.50, i32 noundef %45, i32 noundef 1) #5
  %.not49 = icmp eq i32 %46, 0
  br i1 %.not49, label %70, label %47

47:                                               ; preds = %44
  %48 = call i32 @EVP_PKEY_encapsulate(ptr noundef %34, ptr noundef nonnull %4, ptr noundef nonnull %7, ptr noundef nonnull %2, ptr noundef nonnull %5) #5
  %49 = call i32 @test_int_eq(ptr noundef nonnull @.str.3, i32 noundef 553, ptr noundef nonnull @.str.127, ptr noundef nonnull @.str.50, i32 noundef %48, i32 noundef 1) #5
  %.not50 = icmp eq i32 %49, 0
  br i1 %.not50, label %70, label %50

50:                                               ; preds = %47
  br i1 %37, label %54, label %51

51:                                               ; preds = %50
  %52 = call i32 @EVP_PKEY_auth_decapsulate_init(ptr noundef %34, ptr noundef nonnull %.1, ptr noundef null) #5
  %53 = call i32 @test_int_eq(ptr noundef nonnull @.str.3, i32 noundef 556, ptr noundef nonnull @.str.128, ptr noundef nonnull @.str.50, i32 noundef %52, i32 noundef 1) #5
  %.not51 = icmp eq i32 %53, 0
  br i1 %.not51, label %70, label %57

54:                                               ; preds = %50
  %55 = call i32 @EVP_PKEY_decapsulate_init(ptr noundef %34, ptr noundef null) #5
  %56 = call i32 @test_int_eq(ptr noundef nonnull @.str.3, i32 noundef 558, ptr noundef nonnull @.str.72, ptr noundef nonnull @.str.50, i32 noundef %55, i32 noundef 1) #5
  %.not52 = icmp eq i32 %56, 0
  br i1 %.not52, label %70, label %57

57:                                               ; preds = %51, %54
  %58 = call i32 @EVP_PKEY_CTX_set_kem_op(ptr noundef %34, ptr noundef nonnull @.str.1) #5
  %59 = call i32 @test_int_eq(ptr noundef nonnull @.str.3, i32 noundef 559, ptr noundef nonnull @.str.126, ptr noundef nonnull @.str.50, i32 noundef %58, i32 noundef 1) #5
  %.not53 = icmp eq i32 %59, 0
  br i1 %.not53, label %70, label %60

60:                                               ; preds = %57
  %61 = load i64, ptr %7, align 8, !tbaa !13
  %62 = call i32 @EVP_PKEY_decapsulate(ptr noundef %34, ptr noundef nonnull %3, ptr noundef nonnull %6, ptr noundef nonnull %4, i64 noundef %61) #5
  %63 = call i32 @test_int_eq(ptr noundef nonnull @.str.3, i32 noundef 561, ptr noundef nonnull @.str.129, ptr noundef nonnull @.str.50, i32 noundef %62, i32 noundef 1) #5
  %.not54 = icmp eq i32 %63, 0
  br i1 %.not54, label %70, label %64

64:                                               ; preds = %60
  %65 = load i64, ptr %6, align 8, !tbaa !13
  %66 = load i64, ptr %5, align 8, !tbaa !13
  %67 = call i32 @test_mem_eq(ptr noundef nonnull @.str.3, i32 noundef 563, ptr noundef nonnull @.str.130, ptr noundef nonnull @.str.131, ptr noundef nonnull %3, i64 noundef %65, ptr noundef nonnull %2, i64 noundef %66) #5
  %68 = icmp ne i32 %67, 0
  %69 = zext i1 %68 to i32
  br label %70

70:                                               ; preds = %32, %38, %41, %44, %47, %51, %54, %57, %60, %64, %24, %28, %16, %20
  %.039 = phi ptr [ null, %20 ], [ null, %16 ], [ null, %28 ], [ null, %24 ], [ %34, %64 ], [ %34, %60 ], [ %34, %57 ], [ %34, %54 ], [ %34, %51 ], [ %34, %47 ], [ %34, %44 ], [ %34, %41 ], [ %34, %38 ], [ %34, %32 ]
  %.037 = phi ptr [ %17, %20 ], [ %17, %16 ], [ %25, %28 ], [ %25, %24 ], [ %.138, %64 ], [ %.138, %60 ], [ %.138, %57 ], [ %.138, %54 ], [ %.138, %51 ], [ %.138, %47 ], [ %.138, %44 ], [ %.138, %41 ], [ %.138, %38 ], [ %.138, %32 ]
  %.036 = phi ptr [ %22, %20 ], [ null, %16 ], [ %30, %28 ], [ null, %24 ], [ %.1, %64 ], [ %.1, %60 ], [ %.1, %57 ], [ null, %54 ], [ %.1, %51 ], [ %.1, %47 ], [ %.1, %44 ], [ null, %41 ], [ %.1, %38 ], [ %.1, %32 ]
  %.034 = phi i32 [ 0, %20 ], [ 0, %16 ], [ 0, %28 ], [ 0, %24 ], [ %69, %64 ], [ 0, %60 ], [ 0, %57 ], [ 0, %54 ], [ 0, %51 ], [ 0, %47 ], [ 0, %44 ], [ 0, %41 ], [ 0, %38 ], [ 0, %32 ]
  call void @EVP_PKEY_CTX_free(ptr noundef %.039) #5
  call void @EVP_PKEY_free(ptr noundef %.036) #5
  call void @EVP_PKEY_free(ptr noundef %.037) #5
  call void @llvm.lifetime.end.p0(i64 8, ptr nonnull %7) #5
  call void @llvm.lifetime.end.p0(i64 8, ptr nonnull %6) #5
  call void @llvm.lifetime.end.p0(i64 8, ptr nonnull %5) #5
  call void @llvm.lifetime.end.p0(i64 256, ptr nonnull %4) #5
  call void @llvm.lifetime.end.p0(i64 256, ptr nonnull %3) #5
  call void @llvm.lifetime.end.p0(i64 256, ptr nonnull %2) #5
  ret i32 %.034
}